; Function Attrs: nounwind uwtable
define hidden noundef i32 @_Py_wstat(ptr noundef %0, ptr noundef captures(none) %1) local_unnamed_addr #0 {
  %3 = alloca ptr, align 8
  call void @llvm.lifetime.start.p0(i64 8, ptr nonnull %3) #17
  %4 = call fastcc i32 @encode_locale_ex(ptr noundef %0, ptr noundef nonnull %3, ptr noundef null, ptr noundef null, i32 noundef 1, i32 noundef 0, i32 noundef 2)
  %.not.i.i = icmp ne i32 %4, 0
  %5 = load ptr, ptr %3, align 8
  call void @llvm.lifetime.end.p0(i64 8, ptr nonnull %3) #17
  %6 = icmp eq ptr %5, null
  %7 = select i1 %.not.i.i, i1 true, i1 %6
  br i1 %7, label %8, label %10

8:                                                ; preds = %2
  %9 = tail call ptr @__errno_location() #19
  store i32 22, ptr %9, align 4, !tbaa !180
  br label %12

10:                                               ; preds = %2
  %11 = call i32 @stat64(ptr noundef nonnull %5, ptr noundef %1) #17
  call void @PyMem_RawFree(ptr noundef nonnull %5) #17
  br label %12

12:                                               ; preds = %10, %8
  %.0 = phi i32 [ -1, %8 ], [ %11, %10 ]
  ret i32 %.0
}